; Function Attrs: nounwind uwtable
define internal i32 @SpoolssGetPrinter_q(ptr noundef %0, i32 noundef %1, ptr noundef %2, ptr noundef %3, ptr noundef %4, ptr noundef %5) #0 {
  %7 = alloca i32, align 4
  %8 = getelementptr inbounds nuw i8, ptr %4, i64 72
  %9 = load ptr, ptr %8, align 8
  %10 = load i32, ptr @hf_hnd, align 4
  %11 = tail call i32 @dissect_nt_policy_hnd(ptr noundef %0, i32 noundef %1, ptr noundef %2, ptr noundef %3, ptr noundef %4, ptr noundef %5, i32 noundef %10, ptr noundef null, ptr noundef null, i32 noundef 0, i32 noundef 0) #5
  %12 = load i32, ptr @hf_level, align 4
  %13 = call i32 @dissect_ndr_uint32(ptr noundef %0, i32 noundef %11, ptr noundef %2, ptr noundef %3, ptr noundef %4, ptr noundef %5, i32 noundef %12, ptr noundef nonnull %7) #5
  %14 = getelementptr inbounds nuw i8, ptr %2, i64 80
  %15 = load ptr, ptr %14, align 8
  %16 = getelementptr inbounds nuw i8, ptr %15, i64 50
  %17 = load i16, ptr %16, align 2
  %18 = and i16 %17, 8
  %.not = icmp eq i16 %18, 0
  %.pre = load i32, ptr %7, align 4
  br i1 %.not, label %19, label %23

19:                                               ; preds = %6
  %20 = sext i32 %.pre to i64
  %21 = inttoptr i64 %20 to ptr
  %22 = getelementptr inbounds nuw i8, ptr %9, i64 72
  store ptr %21, ptr %22, align 8
  br label %23

23:                                               ; preds = %19, %6
  %24 = getelementptr inbounds nuw i8, ptr %2, i64 8
  %25 = load ptr, ptr %24, align 8
  call void (ptr, i32, ptr, ...) @col_append_fstr(ptr noundef %25, i32 noundef 25, ptr noundef nonnull @.str.1206, i32 noundef %.pre) #5
  %26 = getelementptr inbounds nuw i8, ptr %4, i64 88
  store ptr null, ptr %26, align 8
  %27 = call i32 @dissect_ndr_pointer(ptr noundef %0, i32 noundef %13, ptr noundef nonnull %2, ptr noundef %3, ptr noundef nonnull %4, ptr noundef %5, ptr noundef nonnull @dissect_spoolss_buffer_data, i32 noundef 2, ptr noundef nonnull @.str.435, i32 noundef -1) #5
  %28 = load i32, ptr @hf_offered, align 4
  %29 = call i32 @dissect_ndr_uint32(ptr noundef %0, i32 noundef %27, ptr noundef nonnull %2, ptr noundef %3, ptr noundef nonnull %4, ptr noundef %5, i32 noundef %28, ptr noundef null) #5
  ret i32 %29
}